; Function Attrs: nounwind uwtable
define dso_local i32 @xdi_diff_outf(ptr noundef readonly captures(none) %0, ptr noundef readonly captures(none) %1, ptr noundef %2, ptr noundef %3, ptr noundef %4, ptr noundef %5, ptr noundef %6) local_unnamed_addr #0 {
  %8 = alloca %struct.s_mmfile, align 8
  %9 = alloca %struct.s_mmfile, align 8
  %10 = alloca %struct.xdiff_emit_state, align 8
  %11 = alloca %struct.s_xdemitcb, align 8
  call void @llvm.lifetime.start.p0(i64 48, ptr nonnull %10) #13
  call void @llvm.lifetime.start.p0(i64 24, ptr nonnull %11) #13
  %12 = getelementptr inbounds nuw i8, ptr %10, i64 24
  call void @llvm.memset.p0.i64(ptr noundef nonnull align 8 dereferenceable(48) %12, i8 0, i64 24, i1 false)
  store ptr %2, ptr %10, align 8, !tbaa !22
  %13 = getelementptr inbounds nuw i8, ptr %10, i64 8
  store ptr %3, ptr %13, align 8, !tbaa !25
  %14 = getelementptr inbounds nuw i8, ptr %10, i64 16
  store ptr %4, ptr %14, align 8, !tbaa !26
  %15 = getelementptr inbounds nuw i8, ptr %11, i64 8
  store i64 0, ptr %15, align 8
  %.not = icmp eq ptr %2, null
  br i1 %.not, label %18, label %16

16:                                               ; preds = %7
  %17 = getelementptr inbounds nuw i8, ptr %11, i64 8
  store ptr @xdiff_out_hunk, ptr %17, align 8, !tbaa !27
  br label %18

18:                                               ; preds = %16, %7
  %19 = getelementptr inbounds nuw i8, ptr %11, i64 16
  store ptr @xdiff_outf, ptr %19, align 8, !tbaa !29
  store ptr %10, ptr %11, align 8, !tbaa !30
  %20 = getelementptr inbounds nuw i8, ptr %10, i64 24
  call void @strbuf_init(ptr noundef nonnull %20, i64 noundef 0) #13
  call void @llvm.lifetime.start.p0(i64 16, ptr nonnull %8) #13
  call void @llvm.memcpy.p0.p0.i64(ptr noundef nonnull align 8 dereferenceable(16) %8, ptr noundef nonnull readonly align 8 dereferenceable(16) %0, i64 16, i1 false), !tbaa.struct !4
  call void @llvm.lifetime.start.p0(i64 16, ptr nonnull %9) #13
  call void @llvm.memcpy.p0.p0.i64(ptr noundef nonnull align 8 dereferenceable(16) %9, ptr noundef nonnull readonly align 8 dereferenceable(16) %1, i64 16, i1 false), !tbaa.struct !4
  %21 = getelementptr inbounds nuw i8, ptr %0, i64 8
  %22 = load i64, ptr %21, align 8, !tbaa !12
  %23 = icmp ugt i64 %22, 1072693248
  br i1 %23, label %xdi_diff.exit, label %24

24:                                               ; preds = %18
  %25 = getelementptr inbounds nuw i8, ptr %1, i64 8
  %26 = load i64, ptr %25, align 8, !tbaa !12
  %27 = icmp ugt i64 %26, 1072693248
  br i1 %27, label %xdi_diff.exit, label %28

28:                                               ; preds = %24
  %29 = load i64, ptr %6, align 8, !tbaa !14
  %.not.i = icmp eq i64 %29, 0
  br i1 %.not.i, label %30, label %56

30:                                               ; preds = %28
  %31 = getelementptr inbounds nuw i8, ptr %6, i64 16
  %32 = load i64, ptr %31, align 8, !tbaa !16
  %33 = and i64 %32, 4
  %.not9.i = icmp eq i64 %33, 0
  br i1 %.not9.i, label %34, label %56

34:                                               ; preds = %30
  %35 = getelementptr inbounds nuw i8, ptr %8, i64 8
  %36 = load i64, ptr %35, align 8, !tbaa !12
  %37 = load ptr, ptr %8, align 8, !tbaa !17
  %38 = getelementptr inbounds i8, ptr %37, i64 %36
  %39 = getelementptr inbounds nuw i8, ptr %9, i64 8
  %40 = load i64, ptr %39, align 8, !tbaa !12
  %41 = load ptr, ptr %9, align 8, !tbaa !17
  %42 = getelementptr inbounds i8, ptr %41, i64 %40
  %..i.i = call i64 @llvm.smin.i64(i64 %36, i64 %40)
  br label %43

43:                                               ; preds = %45, %34
  %.029.i.i = phi ptr [ %38, %34 ], [ %46, %45 ]
  %.028.i.i = phi ptr [ %42, %34 ], [ %47, %45 ]
  %.0.i.i = phi i64 [ 0, %34 ], [ %44, %45 ]
  %44 = add nuw nsw i64 %.0.i.i, 1024
  %.not37.i.i = icmp sgt i64 %44, %..i.i
  br i1 %.not37.i.i, label %.critedge.i.i.preheader, label %45

45:                                               ; preds = %43
  %46 = getelementptr inbounds i8, ptr %.029.i.i, i64 -1024
  %47 = getelementptr inbounds i8, ptr %.028.i.i, i64 -1024
  %bcmp.i.i = call i32 @bcmp(ptr noundef nonnull dereferenceable(1024) %46, ptr noundef nonnull dereferenceable(1024) %47, i64 1024)
  %.not38.i.i = icmp eq i32 %bcmp.i.i, 0
  br i1 %.not38.i.i, label %43, label %.critedge.i.i.preheader, !llvm.loop !18

.critedge.i.i.preheader:                          ; preds = %45, %43
  br label %.critedge.i.i

.critedge.i.i:                                    ; preds = %.critedge.i.i.preheader, %48
  %.030.i.i = phi i64 [ %49, %48 ], [ 0, %.critedge.i.i.preheader ]
  %exitcond.not.i.i = icmp eq i64 %.030.i.i, %.0.i.i
  br i1 %exitcond.not.i.i, label %trim_common_tail.exit.i, label %48

48:                                               ; preds = %.critedge.i.i
  %49 = add nuw nsw i64 %.030.i.i, 1
  %50 = getelementptr inbounds nuw i8, ptr %.029.i.i, i64 %.030.i.i
  %51 = load i8, ptr %50, align 1, !tbaa !20
  %52 = icmp eq i8 %51, 10
  br i1 %52, label %trim_common_tail.exit.i, label %.critedge.i.i, !llvm.loop !21

trim_common_tail.exit.i:                          ; preds = %48, %.critedge.i.i
  %.1.i.i = phi i64 [ %49, %48 ], [ %.0.i.i, %.critedge.i.i ]
  %53 = sub nsw i64 %.0.i.i, %.1.i.i
  %54 = sub nsw i64 %36, %53
  store i64 %54, ptr %35, align 8, !tbaa !12
  %55 = sub nsw i64 %40, %53
  store i64 %55, ptr %39, align 8, !tbaa !12
  br label %56

56:                                               ; preds = %trim_common_tail.exit.i, %30, %28
  %57 = call i32 @xdl_diff(ptr noundef nonnull %8, ptr noundef nonnull %9, ptr noundef %5, ptr noundef nonnull %6, ptr noundef nonnull %11) #13
  br label %xdi_diff.exit

xdi_diff.exit:                                    ; preds = %18, %24, %56
  %.0.i = phi i32 [ %57, %56 ], [ -1, %24 ], [ -1, %18 ]
  call void @llvm.lifetime.end.p0(i64 16, ptr nonnull %9) #13
  call void @llvm.lifetime.end.p0(i64 16, ptr nonnull %8) #13
  call void @strbuf_release(ptr noundef nonnull %20) #13
  call void @llvm.lifetime.end.p0(i64 24, ptr nonnull %11) #13
  call void @llvm.lifetime.end.p0(i64 48, ptr nonnull %10) #13
  ret i32 %.0.i
}